target datalayout = "e-m:e-p270:32:32-p271:32:32-p272:64:64-i64:64-i128:128-f80:128-n8:16:32:64-S128"
target triple = "x86_64-pc-linux-gnu"

%struct._lv_global_t = type { i8, i8, %struct.lv_ll_t, ptr, ptr, %struct.lv_ll_t, i8, i32, i32, ptr, %struct.lv_ll_t, ptr, %struct.lv_ll_t, ptr, ptr, i32, ptr, i8, i32, i32, ptr, i32, %struct.lv_timer_state_t, %struct.lv_anim_state_t, %struct.lv_tick_state_t, %struct._lv_draw_buf_handlers_t, %struct._lv_draw_buf_handlers_t, %struct._lv_draw_buf_handlers_t, %struct.lv_ll_t, ptr, ptr, %struct.lv_draw_global_info_t, [4 x %struct.lv_draw_sw_mask_radius_circle_dsc_t], ptr, ptr, ptr, %struct.lv_tlsf_state_t, %struct.lv_ll_t, ptr, ptr, %struct.lv_style_t, i64, ptr, i32, ptr }
%struct.lv_timer_state_t = type { %struct.lv_ll_t, i8, i8, i8, i8, i32, i8, i32, i32, i32, i32, ptr, ptr }
%struct.lv_anim_state_t = type { i8, i8, ptr, %struct.lv_ll_t }
%struct.lv_tick_state_t = type { i32, i8, ptr, ptr }
%struct._lv_draw_buf_handlers_t = type { ptr, ptr, ptr, ptr, ptr, ptr }
%struct.lv_draw_global_info_t = type { ptr, i32, i32, i32, i32, i8 }
%struct.lv_draw_sw_mask_radius_circle_dsc_t = type { ptr, ptr, ptr, ptr, i32, i32, i32 }
%struct.lv_tlsf_state_t = type { ptr, i64, i64, %struct.lv_ll_t }
%struct.lv_ll_t = type { i32, ptr, ptr }
%struct.lv_style_t = type { ptr, i32, i8 }
%struct.lv_color_t = type { i8, i8, i8 }
%struct._my_theme_t = type { %struct._lv_theme_t, i32, i32, %struct.lv_color_t, %struct.lv_color_t, %struct.lv_color_t, %struct.lv_color_t, i8, %struct.my_theme_styles_t, %struct._lv_color_filter_dsc_t, %struct._lv_color_filter_dsc_t, %struct.lv_style_transition_dsc_t, %struct.lv_style_transition_dsc_t }
%struct._lv_theme_t = type { ptr, ptr, ptr, ptr, %struct.lv_color_t, %struct.lv_color_t, ptr, ptr, ptr, i32 }
%struct.my_theme_styles_t = type { %struct.lv_style_t, %struct.lv_style_t, %struct.lv_style_t, %struct.lv_style_t, %struct.lv_style_t, %struct.lv_style_t, %struct.lv_style_t, %struct.lv_style_t, %struct.lv_style_t, %struct.lv_style_t, %struct.lv_style_t, %struct.lv_style_t, %struct.lv_style_t, %struct.lv_style_t, %struct.lv_style_t, %struct.lv_style_t, %struct.lv_style_t, %struct.lv_style_t, %struct.lv_style_t, %struct.lv_style_t, %struct.lv_style_t, %struct.lv_style_t, %struct.lv_style_t, %struct.lv_style_t, %struct.lv_style_t, %struct.lv_style_t, %struct.lv_style_t, %struct.lv_style_t, %struct.lv_style_t, %struct.lv_style_t, %struct.lv_style_t, %struct.lv_style_t, %struct.lv_style_t, %struct.lv_style_t, %struct.lv_style_t, %struct.lv_style_t, %struct.lv_style_t, %struct.lv_style_t, %struct.lv_style_t, %struct.lv_style_t, %struct.lv_style_t, %struct.lv_style_t, %struct.lv_style_t, %struct.lv_style_t, %struct.lv_style_t, %struct.lv_style_t, %struct.lv_style_t, %struct.lv_style_t, %struct.lv_style_t, %struct.lv_style_t, %struct.lv_style_t, %struct.lv_style_t, %struct.lv_style_t, %struct.lv_style_t, %struct.lv_style_t, %struct.lv_style_t, %struct.lv_style_t, %struct.lv_style_t, %struct.lv_style_t, %struct.lv_style_t, %struct.lv_style_t, %struct.lv_style_t, %struct.lv_style_t, %struct.lv_style_t, %struct.lv_style_t, %struct.lv_style_t, %struct.lv_style_t }
%struct._lv_color_filter_dsc_t = type { ptr, ptr }
%struct.lv_style_transition_dsc_t = type { ptr, ptr, ptr, i32, i32 }

@lv_global = external global %struct._lv_global_t, align 8

; Function Attrs: nounwind uwtable
define zeroext i1 @lv_theme_default_is_inited() #0 {
  %1 = alloca i1, align 1
  %2 = alloca ptr, align 8
  %3 = alloca i32, align 4
  call void @llvm.lifetime.start.p0(i64 8, ptr %2) #5
  %4 = load ptr, ptr getelementptr inbounds nuw (%struct._lv_global_t, ptr @lv_global, i32 0, i32 34), align 8, !tbaa !3
  store ptr %4, ptr %2, align 8, !tbaa !3
  %5 = load ptr, ptr %2, align 8, !tbaa !3
  %6 = icmp eq ptr %5, null
  br i1 %6, label %7, label %8

7:                                                ; preds = %0
  store i1 false, ptr %1, align 1
  store i32 1, ptr %3, align 4
  br label %13

8:                                                ; preds = %0
  %9 = load ptr, ptr %2, align 8, !tbaa !3
  %10 = getelementptr inbounds nuw %struct._my_theme_t, ptr %9, i32 0, i32 7
  %11 = load i8, ptr %10, align 4, !tbaa !11, !range !19, !noundef !20
  %12 = trunc i8 %11 to i1
  store i1 %12, ptr %1, align 1
  store i32 1, ptr %3, align 4
  br label %13

13:                                               ; preds = %8, %7
  call void @llvm.lifetime.end.p0(i64 8, ptr %2) #5
  %14 = load i1, ptr %1, align 1
  ret i1 %14
}

; Function Attrs: nounwind uwtable
define ptr @lv_theme_default_init(ptr noundef %0, i24 %1, i24 %2, i1 noundef zeroext %3, ptr noundef %4) #0 {
  %6 = alloca ptr, align 8
  %7 = alloca %struct.lv_color_t, align 1
  %8 = alloca %struct.lv_color_t, align 1
  %9 = alloca ptr, align 8
  %10 = alloca i8, align 1
  %11 = alloca ptr, align 8
  %12 = alloca ptr, align 8
  %13 = alloca ptr, align 8
  %14 = alloca i32, align 4
  %15 = alloca i32, align 4
  %16 = alloca i32, align 4
  %17 = alloca i24, align 8
  %18 = alloca i24, align 4
  %19 = alloca i24, align 4
  %20 = alloca i24, align 4
  %21 = alloca i32, align 4
  store i24 %1, ptr %7, align 1
  store i24 %2, ptr %8, align 1
  store ptr %0, ptr %9, align 8, !tbaa !3
  %22 = zext i1 %3 to i8
  store i8 %22, ptr %10, align 1, !tbaa !7
  store ptr %4, ptr %11, align 8, !tbaa !3
  %23 = call zeroext i1 @lv_theme_default_is_inited()
  br i1 %23, label %26, label %24

24:                                               ; preds = %5
  %25 = call ptr @lv_malloc_zeroed(i64 noundef 1264)
  store ptr %25, ptr getelementptr inbounds nuw (%struct._lv_global_t, ptr @lv_global, i32 0, i32 34), align 8, !tbaa !3
  br label %26

26:                                               ; preds = %24, %5
  call void @llvm.lifetime.start.p0(i64 8, ptr %12) #5
  %27 = load ptr, ptr getelementptr inbounds nuw (%struct._lv_global_t, ptr @lv_global, i32 0, i32 34), align 8, !tbaa !3
  store ptr %27, ptr %12, align 8, !tbaa !3
  call void @llvm.lifetime.start.p0(i64 8, ptr %13) #5
  %28 = load ptr, ptr %9, align 8, !tbaa !3
  %29 = icmp eq ptr %28, null
  br i1 %29, label %30, label %32

30:                                               ; preds = %26
  %31 = call ptr @lv_display_get_default()
  br label %34

32:                                               ; preds = %26
  %33 = load ptr, ptr %9, align 8, !tbaa !3
  br label %34

34:                                               ; preds = %32, %30
  %35 = phi ptr [ %31, %30 ], [ %33, %32 ]
  store ptr %35, ptr %13, align 8, !tbaa !3
  call void @llvm.lifetime.start.p0(i64 4, ptr %14) #5
  %36 = load ptr, ptr %13, align 8, !tbaa !3
  %37 = call i32 @lv_display_get_dpi(ptr noundef %36)
  store i32 %37, ptr %14, align 4, !tbaa !9
  call void @llvm.lifetime.start.p0(i64 4, ptr %15) #5
  %38 = load ptr, ptr %13, align 8, !tbaa !3
  %39 = call i32 @lv_display_get_horizontal_resolution(ptr noundef %38)
  store i32 %39, ptr %15, align 4, !tbaa !9
  call void @llvm.lifetime.start.p0(i64 4, ptr %16) #5
  %40 = load i32, ptr %15, align 4, !tbaa !9
  %41 = icmp sle i32 %40, 320
  br i1 %41, label %42, label %43

42:                                               ; preds = %34
  store i32 3, ptr %16, align 4, !tbaa !9
  br label %49

43:                                               ; preds = %34
  %44 = load i32, ptr %15, align 4, !tbaa !9
  %45 = icmp slt i32 %44, 720
  br i1 %45, label %46, label %47

46:                                               ; preds = %43
  store i32 2, ptr %16, align 4, !tbaa !9
  br label %48

47:                                               ; preds = %43
  store i32 1, ptr %16, align 4, !tbaa !9
  br label %48

48:                                               ; preds = %47, %46
  br label %49

49:                                               ; preds = %48, %42
  %50 = load ptr, ptr %12, align 8, !tbaa !3
  %51 = getelementptr inbounds nuw %struct._my_theme_t, ptr %50, i32 0, i32 7
  %52 = load i8, ptr %51, align 4, !tbaa !11, !range !19, !noundef !20
  %53 = trunc i8 %52 to i1
  br i1 %53, label %54, label %100

54:                                               ; preds = %49
  %55 = load ptr, ptr %12, align 8, !tbaa !3
  %56 = getelementptr inbounds nuw %struct._my_theme_t, ptr %55, i32 0, i32 2
  %57 = load i32, ptr %56, align 4, !tbaa !21
  %58 = load i32, ptr %14, align 4, !tbaa !9
  %59 = icmp eq i32 %57, %58
  br i1 %59, label %60, label %100

60:                                               ; preds = %54
  %61 = load ptr, ptr %12, align 8, !tbaa !3
  %62 = getelementptr inbounds nuw %struct._my_theme_t, ptr %61, i32 0, i32 1
  %63 = load i32, ptr %62, align 8, !tbaa !22
  %64 = load i32, ptr %16, align 4, !tbaa !9
  %65 = icmp eq i32 %63, %64
  br i1 %65, label %66, label %100

66:                                               ; preds = %60
  %67 = load ptr, ptr %12, align 8, !tbaa !3
  %68 = getelementptr inbounds nuw %struct._my_theme_t, ptr %67, i32 0, i32 0
  %69 = getelementptr inbounds nuw %struct._lv_theme_t, ptr %68, i32 0, i32 4
  call void @llvm.memcpy.p0.p0.i64(ptr align 8 %17, ptr align 8 %69, i64 3, i1 false)
  %70 = load i24, ptr %17, align 8
  call void @llvm.memcpy.p0.p0.i64(ptr align 4 %18, ptr align 1 %7, i64 3, i1 false)
  %71 = load i24, ptr %18, align 4
  %72 = call zeroext i1 @lv_color_eq(i24 %70, i24 %71)
  br i1 %72, label %73, label %100

73:                                               ; preds = %66
  %74 = load ptr, ptr %12, align 8, !tbaa !3
  %75 = getelementptr inbounds nuw %struct._my_theme_t, ptr %74, i32 0, i32 0
  %76 = getelementptr inbounds nuw %struct._lv_theme_t, ptr %75, i32 0, i32 5
  call void @llvm.memcpy.p0.p0.i64(ptr align 4 %19, ptr align 1 %76, i64 3, i1 false)
  %77 = load i24, ptr %19, align 4
  call void @llvm.memcpy.p0.p0.i64(ptr align 4 %20, ptr align 1 %8, i64 3, i1 false)
  %78 = load i24, ptr %20, align 4
  %79 = call zeroext i1 @lv_color_eq(i24 %77, i24 %78)
  br i1 %79, label %80, label %100

80:                                               ; preds = %73
  %81 = load ptr, ptr %12, align 8, !tbaa !3
  %82 = getelementptr inbounds nuw %struct._my_theme_t, ptr %81, i32 0, i32 0
  %83 = getelementptr inbounds nuw %struct._lv_theme_t, ptr %82, i32 0, i32 9
  %84 = load i32, ptr %83, align 8, !tbaa !23
  %85 = load i8, ptr %10, align 1, !tbaa !7, !range !19, !noundef !20
  %86 = trunc i8 %85 to i1
  %87 = zext i1 %86 to i32
  %88 = icmp eq i32 %84, %87
  br i1 %88, label %89, label %90

89:                                               ; preds = %80
  br i1 true, label %91, label %100

90:                                               ; preds = %80
  br i1 false, label %91, label %100

91:                                               ; preds = %90, %89
  %92 = load ptr, ptr %12, align 8, !tbaa !3
  %93 = getelementptr inbounds nuw %struct._my_theme_t, ptr %92, i32 0, i32 0
  %94 = getelementptr inbounds nuw %struct._lv_theme_t, ptr %93, i32 0, i32 6
  %95 = load ptr, ptr %94, align 8, !tbaa !24
  %96 = load ptr, ptr %11, align 8, !tbaa !3
  %97 = icmp eq ptr %95, %96
  br i1 %97, label %98, label %100

98:                                               ; preds = %91
  %99 = load ptr, ptr %12, align 8, !tbaa !3
  store ptr %99, ptr %6, align 8
  store i32 1, ptr %21, align 4
  br label %151

100:                                              ; preds = %91, %90, %89, %73, %66, %60, %54, %49
  %101 = load i32, ptr %16, align 4, !tbaa !9
  %102 = load ptr, ptr %12, align 8, !tbaa !3
  %103 = getelementptr inbounds nuw %struct._my_theme_t, ptr %102, i32 0, i32 1
  store i32 %101, ptr %103, align 8, !tbaa !22
  %104 = load i32, ptr %14, align 4, !tbaa !9
  %105 = load ptr, ptr %12, align 8, !tbaa !3
  %106 = getelementptr inbounds nuw %struct._my_theme_t, ptr %105, i32 0, i32 2
  store i32 %104, ptr %106, align 4, !tbaa !21
  %107 = load ptr, ptr %13, align 8, !tbaa !3
  %108 = load ptr, ptr %12, align 8, !tbaa !3
  %109 = getelementptr inbounds nuw %struct._my_theme_t, ptr %108, i32 0, i32 0
  %110 = getelementptr inbounds nuw %struct._lv_theme_t, ptr %109, i32 0, i32 3
  store ptr %107, ptr %110, align 8, !tbaa !25
  %111 = load ptr, ptr %12, align 8, !tbaa !3
  %112 = getelementptr inbounds nuw %struct._my_theme_t, ptr %111, i32 0, i32 0
  %113 = getelementptr inbounds nuw %struct._lv_theme_t, ptr %112, i32 0, i32 4
  call void @llvm.memcpy.p0.p0.i64(ptr align 8 %113, ptr align 1 %7, i64 3, i1 false), !tbaa.struct !26
  %114 = load ptr, ptr %12, align 8, !tbaa !3
  %115 = getelementptr inbounds nuw %struct._my_theme_t, ptr %114, i32 0, i32 0
  %116 = getelementptr inbounds nuw %struct._lv_theme_t, ptr %115, i32 0, i32 5
  call void @llvm.memcpy.p0.p0.i64(ptr align 1 %116, ptr align 1 %8, i64 3, i1 false), !tbaa.struct !26
  %117 = load ptr, ptr %11, align 8, !tbaa !3
  %118 = load ptr, ptr %12, align 8, !tbaa !3
  %119 = getelementptr inbounds nuw %struct._my_theme_t, ptr %118, i32 0, i32 0
  %120 = getelementptr inbounds nuw %struct._lv_theme_t, ptr %119, i32 0, i32 6
  store ptr %117, ptr %120, align 8, !tbaa !24
  %121 = load ptr, ptr %11, align 8, !tbaa !3
  %122 = load ptr, ptr %12, align 8, !tbaa !3
  %123 = getelementptr inbounds nuw %struct._my_theme_t, ptr %122, i32 0, i32 0
  %124 = getelementptr inbounds nuw %struct._lv_theme_t, ptr %123, i32 0, i32 7
  store ptr %121, ptr %124, align 8, !tbaa !28
  %125 = load ptr, ptr %11, align 8, !tbaa !3
  %126 = load ptr, ptr %12, align 8, !tbaa !3
  %127 = getelementptr inbounds nuw %struct._my_theme_t, ptr %126, i32 0, i32 0
  %128 = getelementptr inbounds nuw %struct._lv_theme_t, ptr %127, i32 0, i32 8
  store ptr %125, ptr %128, align 8, !tbaa !29
  %129 = load ptr, ptr %12, align 8, !tbaa !3
  %130 = getelementptr inbounds nuw %struct._my_theme_t, ptr %129, i32 0, i32 0
  %131 = getelementptr inbounds nuw %struct._lv_theme_t, ptr %130, i32 0, i32 0
  store ptr @theme_apply, ptr %131, align 8, !tbaa !30
  %132 = load i8, ptr %10, align 1, !tbaa !7, !range !19, !noundef !20
  %133 = trunc i8 %132 to i1
  %134 = select i1 %133, i32 1, i32 0
  %135 = load ptr, ptr %12, align 8, !tbaa !3
  %136 = getelementptr inbounds nuw %struct._my_theme_t, ptr %135, i32 0, i32 0
  %137 = getelementptr inbounds nuw %struct._lv_theme_t, ptr %136, i32 0, i32 9
  store i32 %134, ptr %137, align 8, !tbaa !23
  %138 = load ptr, ptr %12, align 8, !tbaa !3
  call void @style_init(ptr noundef %138)
  %139 = load ptr, ptr %9, align 8, !tbaa !3
  %140 = icmp eq ptr %139, null
  br i1 %140, label %146, label %141

141:                                              ; preds = %100
  %142 = load ptr, ptr %9, align 8, !tbaa !3
  %143 = call ptr @lv_display_get_theme(ptr noundef %142)
  %144 = load ptr, ptr %12, align 8, !tbaa !3
  %145 = icmp eq ptr %143, %144
  br i1 %145, label %146, label %147

146:                                              ; preds = %141, %100
  call void @lv_obj_report_style_change(ptr noundef null)
  br label %147

147:                                              ; preds = %146, %141
  %148 = load ptr, ptr %12, align 8, !tbaa !3
  %149 = getelementptr inbounds nuw %struct._my_theme_t, ptr %148, i32 0, i32 7
  store i8 1, ptr %149, align 4, !tbaa !11
  %150 = load ptr, ptr %12, align 8, !tbaa !3
  store ptr %150, ptr %6, align 8
  store i32 1, ptr %21, align 4
  br label %151

151:                                              ; preds = %147, %98
  call void @llvm.lifetime.end.p0(i64 4, ptr %16) #5
  call void @llvm.lifetime.end.p0(i64 4, ptr %15) #5
  call void @llvm.lifetime.end.p0(i64 4, ptr %14) #5
  call void @llvm.lifetime.end.p0(i64 8, ptr %13) #5
  call void @llvm.lifetime.end.p0(i64 8, ptr %12) #5
  %152 = load ptr, ptr %6, align 8
  ret ptr %152
}