; Function Attrs: nounwind uwtable
define ptr @lv_theme_default_init(ptr noundef %0, i24 %1, i24 %2, i1 noundef zeroext %3, ptr noundef %4) local_unnamed_addr #0 {
  %6 = load ptr, ptr getelementptr inbounds nuw (i8, ptr @lv_global, i64 768), align 8, !tbaa !3
  %7 = icmp eq ptr %6, null
  br i1 %7, label %lv_theme_default_is_inited.exit.thread, label %lv_theme_default_is_inited.exit

lv_theme_default_is_inited.exit:                  ; preds = %5
  %8 = getelementptr inbounds nuw i8, ptr %6, i64 92
  %9 = load i8, ptr %8, align 4, !tbaa !7, !range !17, !noundef !18
  %10 = trunc nuw i8 %9 to i1
  br i1 %10, label %12, label %lv_theme_default_is_inited.exit.thread

lv_theme_default_is_inited.exit.thread:           ; preds = %5, %lv_theme_default_is_inited.exit
  %11 = tail call ptr @lv_malloc_zeroed(i64 noundef 1264) #3
  store ptr %11, ptr getelementptr inbounds nuw (i8, ptr @lv_global, i64 768), align 8, !tbaa !3
  br label %12

12:                                               ; preds = %lv_theme_default_is_inited.exit.thread, %lv_theme_default_is_inited.exit
  %13 = phi ptr [ %11, %lv_theme_default_is_inited.exit.thread ], [ %6, %lv_theme_default_is_inited.exit ]
  %14 = icmp eq ptr %0, null
  br i1 %14, label %15, label %17

15:                                               ; preds = %12
  %16 = tail call ptr @lv_display_get_default() #3
  br label %17

17:                                               ; preds = %12, %15
  %18 = phi ptr [ %16, %15 ], [ %0, %12 ]
  %19 = tail call i32 @lv_display_get_dpi(ptr noundef %18) #3
  %20 = tail call i32 @lv_display_get_horizontal_resolution(ptr noundef %18) #3
  %21 = icmp slt i32 %20, 321
  %22 = icmp slt i32 %20, 720
  %. = select i1 %22, i32 2, i32 1
  %.049 = select i1 %21, i32 3, i32 %.
  %23 = getelementptr inbounds nuw i8, ptr %13, i64 92
  %24 = load i8, ptr %23, align 4, !tbaa !7, !range !17, !noundef !18
  %25 = trunc nuw i8 %24 to i1
  br i1 %25, label %26, label %49

26:                                               ; preds = %17
  %27 = getelementptr inbounds nuw i8, ptr %13, i64 76
  %28 = load i32, ptr %27, align 4, !tbaa !19
  %29 = icmp eq i32 %28, %19
  br i1 %29, label %30, label %49

30:                                               ; preds = %26
  %31 = getelementptr inbounds nuw i8, ptr %13, i64 72
  %32 = load i32, ptr %31, align 8, !tbaa !20
  %33 = icmp eq i32 %32, %.049
  br i1 %33, label %34, label %49

34:                                               ; preds = %30
  %35 = getelementptr inbounds nuw i8, ptr %13, i64 32
  %.0.copyload5 = load i24, ptr %35, align 8
  %36 = tail call zeroext i1 @lv_color_eq(i24 %.0.copyload5, i24 %1) #3
  br i1 %36, label %37, label %49

37:                                               ; preds = %34
  %38 = getelementptr inbounds nuw i8, ptr %13, i64 35
  %.0.copyload1 = load i24, ptr %38, align 1
  %39 = tail call zeroext i1 @lv_color_eq(i24 %.0.copyload1, i24 %2) #3
  br i1 %39, label %40, label %49

40:                                               ; preds = %37
  %41 = getelementptr inbounds nuw i8, ptr %13, i64 64
  %42 = load i32, ptr %41, align 8, !tbaa !21
  %43 = zext i1 %3 to i32
  %44 = icmp eq i32 %42, %43
  br i1 %44, label %45, label %49

45:                                               ; preds = %40
  %46 = getelementptr inbounds nuw i8, ptr %13, i64 40
  %47 = load ptr, ptr %46, align 8, !tbaa !22
  %48 = icmp eq ptr %47, %4
  br i1 %48, label %65, label %49

49:                                               ; preds = %40, %45, %37, %34, %30, %26, %17
  %50 = getelementptr inbounds nuw i8, ptr %13, i64 72
  store i32 %.049, ptr %50, align 8, !tbaa !20
  %51 = getelementptr inbounds nuw i8, ptr %13, i64 76
  store i32 %19, ptr %51, align 4, !tbaa !19
  %52 = getelementptr inbounds nuw i8, ptr %13, i64 24
  store ptr %18, ptr %52, align 8, !tbaa !23
  %53 = getelementptr inbounds nuw i8, ptr %13, i64 32
  store i24 %1, ptr %53, align 8
  %54 = getelementptr inbounds nuw i8, ptr %13, i64 35
  store i24 %2, ptr %54, align 1
  %55 = getelementptr inbounds nuw i8, ptr %13, i64 40
  store ptr %4, ptr %55, align 8, !tbaa !22
  %56 = getelementptr inbounds nuw i8, ptr %13, i64 48
  store ptr %4, ptr %56, align 8, !tbaa !24
  %57 = getelementptr inbounds nuw i8, ptr %13, i64 56
  store ptr %4, ptr %57, align 8, !tbaa !25
  store ptr @theme_apply, ptr %13, align 8, !tbaa !26
  %58 = zext i1 %3 to i32
  %59 = getelementptr inbounds nuw i8, ptr %13, i64 64
  store i32 %58, ptr %59, align 8, !tbaa !21
  tail call fastcc void @style_init(ptr noundef nonnull %13)
  br i1 %14, label %63, label %60

60:                                               ; preds = %49
  %61 = tail call ptr @lv_display_get_theme(ptr noundef nonnull %0) #3
  %62 = icmp eq ptr %61, %13
  br i1 %62, label %63, label %64

63:                                               ; preds = %60, %49
  tail call void @lv_obj_report_style_change(ptr noundef null) #3
  br label %64

64:                                               ; preds = %63, %60
  store i8 1, ptr %23, align 4, !tbaa !7
  br label %65

65:                                               ; preds = %45, %64
  ret ptr %13
}